target datalayout = "e-m:e-p270:32:32-p271:32:32-p272:64:64-i64:64-i128:128-f80:128-n8:16:32:64-S128"
target triple = "x86_64-unknown-linux-gnu"

%"class.euf::ackerman" = type <{ ptr, ptr, %class.hashtable, ptr, ptr, i32, i32, i32, [4 x i8] }>
%class.hashtable = type { %class.core_hashtable.base, [4 x i8] }
%class.core_hashtable.base = type <{ ptr, i32, i32, i32 }>
%"struct.euf::ackerman::inference" = type <{ %class.dll_base, ptr, ptr, ptr, i32, i8, [3 x i8] }>
%class.dll_base = type { ptr, ptr }
%class.ast = type { i32, i24, i32, i32 }

; Function Attrs: mustprogress nounwind uwtable
define linkonce_odr hidden void @_ZSt4swapIP3appENSt9enable_ifIXsr6__and_ISt6__not_ISt15__is_tuple_likeIT_EESt21is_move_constructibleIS5_ESt18is_move_assignableIS5_EEE5valueEvE4typeERS5_SE_(ptr noundef nonnull align 8 dereferenceable(8) %__a, ptr noundef nonnull align 8 dereferenceable(8) %__b) #4 comdat {
entry:
  %__a.addr = alloca ptr, align 8
  %__b.addr = alloca ptr, align 8
  %__tmp = alloca ptr, align 8
  store ptr %__a, ptr %__a.addr, align 8
  store ptr %__b, ptr %__b.addr, align 8
  %0 = load ptr, ptr %__a.addr, align 8
  %1 = load ptr, ptr %0, align 8
  store ptr %1, ptr %__tmp, align 8
  %2 = load ptr, ptr %__b.addr, align 8
  %3 = load ptr, ptr %2, align 8
  %4 = load ptr, ptr %__a.addr, align 8
  store ptr %3, ptr %4, align 8
  %5 = load ptr, ptr %__tmp, align 8
  %6 = load ptr, ptr %__b.addr, align 8
  store ptr %5, ptr %6, align 8
  ret void
}

; Function Attrs: mustprogress nounwind uwtable
define linkonce_odr hidden noundef i32 @_ZNK3ast6get_idEv(ptr noundef nonnull align 4 dereferenceable(16) %this) #4 comdat align 2 {
entry:
  %this.addr = alloca ptr, align 8
  store ptr %this, ptr %this.addr, align 8
  %this1 = load ptr, ptr %this.addr, align 8
  %m_id = getelementptr inbounds %class.ast, ptr %this1, i32 0, i32 0
  %0 = load i32, ptr %m_id, align 4
  ret i32 %0
}

; Function Attrs: mustprogress uwtable
define hidden void @_ZN3euf8ackerman6insertEP3appS2_(ptr noundef nonnull align 8 dereferenceable(68) %this, ptr noundef %a, ptr noundef %b) #5 align 2 {
entry:
  %this.addr = alloca ptr, align 8
  %a.addr = alloca ptr, align 8
  %b.addr = alloca ptr, align 8
  %inf = alloca ptr, align 8
  store ptr %this, ptr %this.addr, align 8
  store ptr %a, ptr %a.addr, align 8
  store ptr %b, ptr %b.addr, align 8
  %this1 = load ptr, ptr %this.addr, align 8
  %0 = load ptr, ptr %a.addr, align 8
  %call = call noundef i32 @_ZNK3ast6get_idEv(ptr noundef nonnull align 4 dereferenceable(16) %0)
  %1 = load ptr, ptr %b.addr, align 8
  %call2 = call noundef i32 @_ZNK3ast6get_idEv(ptr noundef nonnull align 4 dereferenceable(16) %1)
  %cmp = icmp ugt i32 %call, %call2
  br i1 %cmp, label %if.then, label %if.end

if.then:                                          ; preds = %entry
  call void @_ZSt4swapIP3appENSt9enable_ifIXsr6__and_ISt6__not_ISt15__is_tuple_likeIT_EESt21is_move_constructibleIS5_ESt18is_move_assignableIS5_EEE5valueEvE4typeERS5_SE_(ptr noundef nonnull align 8 dereferenceable(8) %a.addr, ptr noundef nonnull align 8 dereferenceable(8) %b.addr) #3
  br label %if.end

if.end:                                           ; preds = %if.then, %entry
  %m_tmp_inference = getelementptr inbounds %"class.euf::ackerman", ptr %this1, i32 0, i32 4
  %2 = load ptr, ptr %m_tmp_inference, align 8
  store ptr %2, ptr %inf, align 8
  %3 = load ptr, ptr %a.addr, align 8
  %4 = load ptr, ptr %inf, align 8
  %a3 = getelementptr inbounds %"struct.euf::ackerman::inference", ptr %4, i32 0, i32 1
  store ptr %3, ptr %a3, align 8
  %5 = load ptr, ptr %b.addr, align 8
  %6 = load ptr, ptr %inf, align 8
  %b4 = getelementptr inbounds %"struct.euf::ackerman::inference", ptr %6, i32 0, i32 2
  store ptr %5, ptr %b4, align 8
  %7 = load ptr, ptr %inf, align 8
  %c = getelementptr inbounds %"struct.euf::ackerman::inference", ptr %7, i32 0, i32 3
  store ptr null, ptr %c, align 8
  %8 = load ptr, ptr %inf, align 8
  %is_cc = getelementptr inbounds %"struct.euf::ackerman::inference", ptr %8, i32 0, i32 5
  store i8 1, ptr %is_cc, align 4
  %9 = load ptr, ptr %inf, align 8
  %m_count = getelementptr inbounds %"struct.euf::ackerman::inference", ptr %9, i32 0, i32 4
  store i32 0, ptr %m_count, align 8
  call void @_ZN3euf8ackerman6insertEv(ptr noundef nonnull align 8 dereferenceable(68) %this1)
  ret void
}