; Function Attrs: mustprogress uwtable
define hidden void @_ZN3euf8ackerman6insertEP3appS2_(ptr noundef nonnull align 8 dereferenceable(68) %this, ptr noundef %a, ptr noundef %b) local_unnamed_addr #3 align 2 {
entry:
  %0 = load i32, ptr %a, align 4
  %1 = load i32, ptr %b, align 4
  %cmp = icmp ugt i32 %0, %1
  %spec.select = select i1 %cmp, ptr %b, ptr %a
  %spec.select8 = select i1 %cmp, ptr %a, ptr %b
  %m_tmp_inference = getelementptr inbounds i8, ptr %this, i64 48
  %2 = load ptr, ptr %m_tmp_inference, align 8
  %a3 = getelementptr inbounds i8, ptr %2, i64 16
  store ptr %spec.select, ptr %a3, align 8
  %b4 = getelementptr inbounds i8, ptr %2, i64 24
  store ptr %spec.select8, ptr %b4, align 8
  %c = getelementptr inbounds i8, ptr %2, i64 32
  store ptr null, ptr %c, align 8
  %is_cc = getelementptr inbounds i8, ptr %2, i64 44
  store i8 1, ptr %is_cc, align 4
  %m_count = getelementptr inbounds i8, ptr %2, i64 40
  store i32 0, ptr %m_count, align 8
  tail call void @_ZN3euf8ackerman6insertEv(ptr noundef nonnull align 8 dereferenceable(68) %this)
  ret void
}